; Function Attrs: nounwind uwtable
define ptr @l_Lean_Compiler_InlineAttributeKind_noConfusion___rarg___boxed(ptr noundef %0, ptr noundef %1, ptr readnone captures(none) %2) #1 {
  %4 = ptrtoint ptr %0 to i64
  %5 = and i64 %4, 1
  %.not = icmp eq i64 %5, 0
  br i1 %.not, label %6, label %lean_dec.exit7

6:                                                ; preds = %3
  %7 = load i32, ptr %0, align 4, !tbaa !4
  %8 = icmp sgt i32 %7, 1
  br i1 %8, label %9, label %11, !prof !9

9:                                                ; preds = %6
  %10 = add nsw i32 %7, -1
  store i32 %10, ptr %0, align 4, !tbaa !4
  br label %lean_dec.exit7

11:                                               ; preds = %6
  %.not.i = icmp eq i32 %7, 0
  br i1 %.not.i, label %lean_dec.exit7, label %12

12:                                               ; preds = %11
  tail call void @lean_dec_ref_cold(ptr noundef nonnull %0) #7
  br label %lean_dec.exit7

lean_dec.exit7:                                   ; preds = %12, %11, %9, %3
  %13 = ptrtoint ptr %1 to i64
  %14 = and i64 %13, 1
  %.not10 = icmp eq i64 %14, 0
  br i1 %.not10, label %15, label %lean_dec.exit

15:                                               ; preds = %lean_dec.exit7
  %16 = load i32, ptr %1, align 4, !tbaa !4
  %17 = icmp sgt i32 %16, 1
  br i1 %17, label %18, label %20, !prof !9

18:                                               ; preds = %15
  %19 = add nsw i32 %16, -1
  store i32 %19, ptr %1, align 4, !tbaa !4
  br label %lean_dec.exit

20:                                               ; preds = %15
  %.not.i8 = icmp eq i32 %16, 0
  br i1 %.not.i8, label %lean_dec.exit, label %21

21:                                               ; preds = %20
  tail call void @lean_dec_ref_cold(ptr noundef nonnull %1) #7
  br label %lean_dec.exit

lean_dec.exit:                                    ; preds = %21, %20, %18, %lean_dec.exit7
  %22 = load ptr, ptr @l_Lean_Compiler_InlineAttributeKind_noConfusion___rarg___closed__1, align 8, !tbaa !10
  ret ptr %22
}